(lp0
(lp1
I0
aI0
aI0
aI0
aI0
aI0
aI0
aI0
aI0
aI0
aa(lp2
I0
aI0
aI0
aI0
aI0
aI0
aI0
aI0
aI0
aI0
aa(lp3
I0
aI0
aI0
aI0
aI0
aI0
aI0
aI0
aI0
aI0
aa(lp4
I0
aI0
aI0
aI0
aI0
aI0
aI0
aI0
aI0
aI0
aa(lp5
I0
aI0
aI0
aI0
aI0
aI0
aI0
aI0
aI0
aI0
aa(lp6
I0
aI0
aI0
aI0
aI0
aI0
aI0
aI0
aI0
aI0
aa(lp7
I0
aI0
aI0
aI0
aI0
aI0
aI0
aI0
aI0
aI0
aa(lp8
cnumpy.core.multiarray
scalar
p9
(cnumpy
dtype
p10
(S'f4'
p11
I0
I1
tp12
Rp13
(I3
S'<'
p14
NNNI-1
I-1
I0
tp15
bS'_)[?'
p16
tp17
Rp18
ag9
(g13
S'aTb?'
p19
tp20
Rp21
ag9
(g13
S'\x03x[?'
p22
tp23
Rp24
ag9
(g13
S'\xe4\x83^?'
p25
tp26
Rp27
ag9
(g13
S'\xc6md?'
p28
tp29
Rp30
ag9
(g13
S'*\xa9S?'
p31
tp32
Rp33
ag9
(g13
S'd;_?'
p34
tp35
Rp36
ag9
(g13
S'\x87\xa7W?'
p37
tp38
Rp39
ag9
(g13
S'\xbd\xe3T?'
p40
tp41
Rp42
ag9
(g13
S'\xd6V\\?'
p43
tp44
Rp45
aa(lp46
I0
aI0
aI0
aI0
aI0
aI0
aI0
aI0
aI0
aI0
aa.