(lp0
(lp1
cnumpy.core.multiarray
scalar
p2
(cnumpy
dtype
p3
(S'f4'
p4
I0
I1
tp5
Rp6
(I3
S'<'
p7
NNNI-1
I-1
I0
tp8
bS'9\xb4\xc8='
p9
tp10
Rp11
ag2
(g6
S'9\xb4\xc8='
p12
tp13
Rp14
ag2
(g6
S'9\xb4\xc8='
p15
tp16
Rp17
ag2
(g6
S'\xb0r\xe8='
p18
tp19
Rp20
ag2
(g6
S'9\xb4\xc8='
p21
tp22
Rp23
aa(lp24
g2
(g6
S'9\xb4\xc8='
p25
tp26
Rp27
ag2
(g6
S'9\xb4\xc8='
p28
tp29
Rp30
ag2
(g6
S'9\xb4\xc8='
p31
tp32
Rp33
ag2
(g6
S'9\xb4\xc8='
p34
tp35
Rp36
ag2
(g6
S'9\xb4\xc8='
p37
tp38
Rp39
aa(lp40
g2
(g6
S'9\xb4\xc8='
p41
tp42
Rp43
ag2
(g6
S'9\xb4\xc8='
p44
tp45
Rp46
ag2
(g6
S'\x17\xd9\xce='
p47
tp48
Rp49
ag2
(g6
S'9\xb4\xc8='
p50
tp51
Rp52
ag2
(g6
S'\xb0r\xe8='
p53
tp54
Rp55
aa(lp56
g2
(g6
S'/\xddt?'
p57
tp58
Rp59
ag2
(g6
S'\xe6\xaeu?'
p60
tp61
Rp62
ag2
(g6
S'\xebsu?'
p63
tp64
Rp65
ag2
(g6
S'F%u?'
p66
tp67
Rp68
ag2
(g6
S'\xcf\xf7s?'
p69
tp70
Rp71
aa(lp72
g2
(g6
S'\xc2\x17v?'
p73
tp74
Rp75
ag2
(g6
S'\xb4Yu?'
p76
tp77
Rp78
ag2
(g6
S'T\xe3u?'
p79
tp80
Rp81
ag2
(g6
S'\xd4+u?'
p82
tp83
Rp84
ag2
(g6
S'\xaa`t?'
p85
tp86
Rp87
aa(lp88
g2
(g6
S'\xe6\xaeu?'
p89
tp90
Rp91
ag2
(g6
S'\x19\x04v?'
p92
tp93
Rp94
ag2
(g6
S'\x868v?'
p95
tp96
Rp97
ag2
(g6
S'\x19\x04v?'
p98
tp99
Rp100
ag2
(g6
S'\xab\xcfu?'
p101
tp102
Rp103
aa(lp104
g2
(g6
S'\xa6\x9bt?'
p105
tp106
Rp107
ag2
(g6
S'\xc1\xa8t?'
p108
tp109
Rp110
ag2
(g6
S'jMs?'
p111
tp112
Rp113
ag2
(g6
S'9\xb4\xc8='
p114
tp115
Rp116
ag2
(g6
S'9\xb4\xc8='
p117
tp118
Rp119
aa(lp120
g2
(g6
S'9\xb4\xc8='
p121
tp122
Rp123
ag2
(g6
S'9\xb4\xc8='
p124
tp125
Rp126
ag2
(g6
S'9\xb4\xc8='
p127
tp128
Rp129
ag2
(g6
S'9\xb4\xc8='
p130
tp131
Rp132
ag2
(g6
S'9\xb4\xc8='
p133
tp134
Rp135
aa.